; Function Attrs: nounwind uwtable
define internal range(i32 -1, 1) i32 @H5P__dcrt_reg_prop(ptr noundef %0) #0 {
  %2 = load i8, ptr @H5P_init_g, align 1, !tbaa !3, !range !7, !noundef !8
  %3 = trunc nuw i8 %2 to i1
  %4 = load i8, ptr @H5_libterm_g, align 1, !range !7
  %5 = trunc nuw i8 %4 to i1
  %6 = xor i1 %5, true
  %7 = select i1 %3, i1 true, i1 %6
  br i1 %7, label %8, label %26, !prof !9

8:                                                ; preds = %1
  %9 = tail call i32 @H5P__register_real(ptr noundef %0, ptr noundef nonnull @.str.9, i64 noundef 2256, ptr noundef nonnull @H5D_def_layout_g, ptr noundef null, ptr noundef nonnull @H5P__dcrt_layout_set, ptr noundef nonnull @H5P__dcrt_layout_get, ptr noundef nonnull @H5P__dcrt_layout_enc, ptr noundef nonnull @H5P__dcrt_layout_dec, ptr noundef nonnull @H5P__dcrt_layout_del, ptr noundef nonnull @H5P__dcrt_layout_copy, ptr noundef nonnull @H5P__dcrt_layout_cmp, ptr noundef nonnull @H5P__dcrt_layout_close) #12
  %10 = icmp slt i32 %9, 0
  br i1 %10, label %.sink.split, label %11

11:                                               ; preds = %8
  %12 = tail call i32 @H5P__register_real(ptr noundef %0, ptr noundef nonnull @.str.63, i64 noundef 88, ptr noundef nonnull @H5D_def_fill_g, ptr noundef null, ptr noundef nonnull @H5P__dcrt_fill_value_set, ptr noundef nonnull @H5P__dcrt_fill_value_get, ptr noundef nonnull @H5P__dcrt_fill_value_enc, ptr noundef nonnull @H5P__dcrt_fill_value_dec, ptr noundef nonnull @H5P__dcrt_fill_value_del, ptr noundef nonnull @H5P__dcrt_fill_value_copy, ptr noundef nonnull @H5P_fill_value_cmp, ptr noundef nonnull @H5P__dcrt_fill_value_close) #12
  %13 = icmp slt i32 %12, 0
  br i1 %13, label %.sink.split, label %14

14:                                               ; preds = %11
  %15 = tail call i32 @H5P__register_real(ptr noundef %0, ptr noundef nonnull @.str.80, i64 noundef 4, ptr noundef nonnull @H5D_def_alloc_time_state_g, ptr noundef null, ptr noundef null, ptr noundef null, ptr noundef nonnull @H5P__encode_unsigned, ptr noundef nonnull @H5P__decode_unsigned, ptr noundef null, ptr noundef null, ptr noundef null, ptr noundef null) #12
  %16 = icmp slt i32 %15, 0
  br i1 %16, label %.sink.split, label %17

17:                                               ; preds = %14
  %18 = tail call i32 @H5P__register_real(ptr noundef %0, ptr noundef nonnull @.str.42, i64 noundef 32, ptr noundef nonnull @H5D_def_efl_g, ptr noundef null, ptr noundef nonnull @H5P__dcrt_ext_file_list_set, ptr noundef nonnull @H5P__dcrt_ext_file_list_get, ptr noundef nonnull @H5P__dcrt_ext_file_list_enc, ptr noundef nonnull @H5P__dcrt_ext_file_list_dec, ptr noundef nonnull @H5P__dcrt_ext_file_list_del, ptr noundef nonnull @H5P__dcrt_ext_file_list_copy, ptr noundef nonnull @H5P__dcrt_ext_file_list_cmp, ptr noundef nonnull @H5P__dcrt_ext_file_list_close) #12
  %19 = icmp slt i32 %18, 0
  br i1 %19, label %.sink.split, label %20

20:                                               ; preds = %17
  %21 = tail call i32 @H5P__register_real(ptr noundef %0, ptr noundef nonnull @.str.84, i64 noundef 1, ptr noundef nonnull @H5O_ohdr_min_g, ptr noundef null, ptr noundef null, ptr noundef null, ptr noundef nonnull @H5P__encode_bool, ptr noundef nonnull @H5P__decode_bool, ptr noundef null, ptr noundef null, ptr noundef null, ptr noundef null) #12
  %22 = icmp slt i32 %21, 0
  br i1 %22, label %.sink.split, label %26

.sink.split:                                      ; preds = %20, %17, %14, %11, %8
  %.sink = phi i32 [ 308, %8 ], [ 315, %11 ], [ 321, %14 ], [ 329, %17 ], [ 335, %20 ]
  %23 = load i64, ptr @H5E_PLIST_g, align 8, !tbaa !10
  %24 = load i64, ptr @H5E_CANTINSERT_g, align 8, !tbaa !10
  %25 = tail call i32 (ptr, ptr, i32, i64, i64, ptr, ...) @H5E_printf_stack(ptr noundef nonnull @.str.1, ptr noundef nonnull @__func__.H5P__dcrt_reg_prop, i32 noundef %.sink, i64 noundef %23, i64 noundef %24, ptr noundef nonnull @.str.87) #12
  br label %26

26:                                               ; preds = %.sink.split, %20, %1
  %.0 = phi i32 [ 0, %20 ], [ 0, %1 ], [ -1, %.sink.split ]
  ret i32 %.0
}